target datalayout = "e-m:e-p270:32:32-p271:32:32-p272:64:64-i64:64-i128:128-f80:128-n8:16:32:64-S128"
target triple = "x86_64-pc-linux-gnu"

%"class.icu_77::UObject" = type { ptr }
%"class.icu_77::Locale" = type <{ %"class.icu_77::UObject", [12 x i8], [6 x i8], [4 x i8], [2 x i8], i32, [4 x i8], ptr, [157 x i8], [3 x i8], ptr, i8, [7 x i8] }>
%"class.icu_77::RelativeDateTimeFormatter" = type { %"class.icu_77::UObject", ptr, ptr, ptr, i32, i32, ptr, %"class.icu_77::Locale" }

; Function Attrs: mustprogress uwtable
define linkonce_odr void @_ZN6icu_7712SharedObject7copyPtrINS_19SharedBreakIteratorEEEvPKT_RS5_(ptr noundef %0, ptr noundef nonnull align 8 dereferenceable(8) %1) #1 comdat align 2 {
  %3 = alloca ptr, align 8
  %4 = alloca ptr, align 8
  store ptr %0, ptr %3, align 8, !tbaa !116
  store ptr %1, ptr %4, align 8, !tbaa !126
  %5 = load ptr, ptr %3, align 8, !tbaa !116
  %6 = load ptr, ptr %4, align 8, !tbaa !126
  %7 = load ptr, ptr %6, align 8, !tbaa !116
  %8 = icmp ne ptr %5, %7
  br i1 %8, label %9, label %24

9:                                                ; preds = %2
  %10 = load ptr, ptr %4, align 8, !tbaa !126
  %11 = load ptr, ptr %10, align 8, !tbaa !116
  %12 = icmp ne ptr %11, null
  br i1 %12, label %13, label %16

13:                                               ; preds = %9
  %14 = load ptr, ptr %4, align 8, !tbaa !126
  %15 = load ptr, ptr %14, align 8, !tbaa !116
  call void @_ZNK6icu_7712SharedObject9removeRefEv(ptr noundef nonnull align 8 dereferenceable(24) %15)
  br label %16

16:                                               ; preds = %13, %9
  %17 = load ptr, ptr %3, align 8, !tbaa !116
  %18 = load ptr, ptr %4, align 8, !tbaa !126
  store ptr %17, ptr %18, align 8, !tbaa !116
  %19 = load ptr, ptr %3, align 8, !tbaa !116
  %20 = icmp ne ptr %19, null
  br i1 %20, label %21, label %23

21:                                               ; preds = %16
  %22 = load ptr, ptr %3, align 8, !tbaa !116
  call void @_ZNK6icu_7712SharedObject6addRefEv(ptr noundef nonnull align 8 dereferenceable(24) %22)
  br label %23

23:                                               ; preds = %21, %16
  br label %24

24:                                               ; preds = %23, %2
  ret void
}

; Function Attrs: mustprogress uwtable
define linkonce_odr void @_ZN6icu_7712SharedObject7copyPtrINS_17SharedPluralRulesEEEvPKT_RS5_(ptr noundef %0, ptr noundef nonnull align 8 dereferenceable(8) %1) #1 comdat align 2 {
  %3 = alloca ptr, align 8
  %4 = alloca ptr, align 8
  store ptr %0, ptr %3, align 8, !tbaa !114
  store ptr %1, ptr %4, align 8, !tbaa !124
  %5 = load ptr, ptr %3, align 8, !tbaa !114
  %6 = load ptr, ptr %4, align 8, !tbaa !124
  %7 = load ptr, ptr %6, align 8, !tbaa !114
  %8 = icmp ne ptr %5, %7
  br i1 %8, label %9, label %24

9:                                                ; preds = %2
  %10 = load ptr, ptr %4, align 8, !tbaa !124
  %11 = load ptr, ptr %10, align 8, !tbaa !114
  %12 = icmp ne ptr %11, null
  br i1 %12, label %13, label %16

13:                                               ; preds = %9
  %14 = load ptr, ptr %4, align 8, !tbaa !124
  %15 = load ptr, ptr %14, align 8, !tbaa !114
  call void @_ZNK6icu_7712SharedObject9removeRefEv(ptr noundef nonnull align 8 dereferenceable(24) %15)
  br label %16

16:                                               ; preds = %13, %9
  %17 = load ptr, ptr %3, align 8, !tbaa !114
  %18 = load ptr, ptr %4, align 8, !tbaa !124
  store ptr %17, ptr %18, align 8, !tbaa !114
  %19 = load ptr, ptr %3, align 8, !tbaa !114
  %20 = icmp ne ptr %19, null
  br i1 %20, label %21, label %23

21:                                               ; preds = %16
  %22 = load ptr, ptr %3, align 8, !tbaa !114
  call void @_ZNK6icu_7712SharedObject6addRefEv(ptr noundef nonnull align 8 dereferenceable(24) %22)
  br label %23

23:                                               ; preds = %21, %16
  br label %24

24:                                               ; preds = %23, %2
  ret void
}

; Function Attrs: mustprogress uwtable
define linkonce_odr void @_ZN6icu_7712SharedObject7copyPtrINS_18SharedNumberFormatEEEvPKT_RS5_(ptr noundef %0, ptr noundef nonnull align 8 dereferenceable(8) %1) #1 comdat align 2 {
  %3 = alloca ptr, align 8
  %4 = alloca ptr, align 8
  store ptr %0, ptr %3, align 8, !tbaa !115
  store ptr %1, ptr %4, align 8, !tbaa !122
  %5 = load ptr, ptr %3, align 8, !tbaa !115
  %6 = load ptr, ptr %4, align 8, !tbaa !122
  %7 = load ptr, ptr %6, align 8, !tbaa !115
  %8 = icmp ne ptr %5, %7
  br i1 %8, label %9, label %24

9:                                                ; preds = %2
  %10 = load ptr, ptr %4, align 8, !tbaa !122
  %11 = load ptr, ptr %10, align 8, !tbaa !115
  %12 = icmp ne ptr %11, null
  br i1 %12, label %13, label %16

13:                                               ; preds = %9
  %14 = load ptr, ptr %4, align 8, !tbaa !122
  %15 = load ptr, ptr %14, align 8, !tbaa !115
  call void @_ZNK6icu_7712SharedObject9removeRefEv(ptr noundef nonnull align 8 dereferenceable(24) %15)
  br label %16

16:                                               ; preds = %13, %9
  %17 = load ptr, ptr %3, align 8, !tbaa !115
  %18 = load ptr, ptr %4, align 8, !tbaa !122
  store ptr %17, ptr %18, align 8, !tbaa !115
  %19 = load ptr, ptr %3, align 8, !tbaa !115
  %20 = icmp ne ptr %19, null
  br i1 %20, label %21, label %23

21:                                               ; preds = %16
  %22 = load ptr, ptr %3, align 8, !tbaa !115
  call void @_ZNK6icu_7712SharedObject6addRefEv(ptr noundef nonnull align 8 dereferenceable(24) %22)
  br label %23

23:                                               ; preds = %21, %16
  br label %24

24:                                               ; preds = %23, %2
  ret void
}

; Function Attrs: mustprogress uwtable
define linkonce_odr void @_ZN6icu_7712SharedObject7copyPtrINS_25RelativeDateTimeCacheDataEEEvPKT_RS5_(ptr noundef %0, ptr noundef nonnull align 8 dereferenceable(8) %1) #1 comdat align 2 {
  %3 = alloca ptr, align 8
  %4 = alloca ptr, align 8
  store ptr %0, ptr %3, align 8, !tbaa !23
  store ptr %1, ptr %4, align 8, !tbaa !119
  %5 = load ptr, ptr %3, align 8, !tbaa !23
  %6 = load ptr, ptr %4, align 8, !tbaa !119
  %7 = load ptr, ptr %6, align 8, !tbaa !23
  %8 = icmp ne ptr %5, %7
  br i1 %8, label %9, label %24

9:                                                ; preds = %2
  %10 = load ptr, ptr %4, align 8, !tbaa !119
  %11 = load ptr, ptr %10, align 8, !tbaa !23
  %12 = icmp ne ptr %11, null
  br i1 %12, label %13, label %16

13:                                               ; preds = %9
  %14 = load ptr, ptr %4, align 8, !tbaa !119
  %15 = load ptr, ptr %14, align 8, !tbaa !23
  call void @_ZNK6icu_7712SharedObject9removeRefEv(ptr noundef nonnull align 8 dereferenceable(24) %15)
  br label %16

16:                                               ; preds = %13, %9
  %17 = load ptr, ptr %3, align 8, !tbaa !23
  %18 = load ptr, ptr %4, align 8, !tbaa !119
  store ptr %17, ptr %18, align 8, !tbaa !23
  %19 = load ptr, ptr %3, align 8, !tbaa !23
  %20 = icmp ne ptr %19, null
  br i1 %20, label %21, label %23

21:                                               ; preds = %16
  %22 = load ptr, ptr %3, align 8, !tbaa !23
  call void @_ZNK6icu_7712SharedObject6addRefEv(ptr noundef nonnull align 8 dereferenceable(24) %22)
  br label %23

23:                                               ; preds = %21, %16
  br label %24

24:                                               ; preds = %23, %2
  ret void
}

; Function Attrs: mustprogress uwtable
define noundef nonnull align 8 dereferenceable(272) ptr @_ZN6icu_7725RelativeDateTimeFormatteraSERKS0_(ptr noundef nonnull align 8 dereferenceable(272) %0, ptr noundef nonnull align 8 dereferenceable(272) %1) #1 align 2 {
  %3 = alloca ptr, align 8
  %4 = alloca ptr, align 8
  store ptr %0, ptr %3, align 8, !tbaa !94
  store ptr %1, ptr %4, align 8, !tbaa !94
  %5 = load ptr, ptr %3, align 8
  %6 = load ptr, ptr %4, align 8, !tbaa !94
  %7 = icmp ne ptr %5, %6
  br i1 %7, label %8, label %37

8:                                                ; preds = %2
  %9 = load ptr, ptr %4, align 8, !tbaa !94
  %10 = getelementptr inbounds nuw %"class.icu_77::RelativeDateTimeFormatter", ptr %9, i32 0, i32 1
  %11 = load ptr, ptr %10, align 8, !tbaa !96
  %12 = getelementptr inbounds nuw %"class.icu_77::RelativeDateTimeFormatter", ptr %5, i32 0, i32 1
  call void @_ZN6icu_7712SharedObject7copyPtrINS_25RelativeDateTimeCacheDataEEEvPKT_RS5_(ptr noundef %11, ptr noundef nonnull align 8 dereferenceable(8) %12)
  %13 = load ptr, ptr %4, align 8, !tbaa !94
  %14 = getelementptr inbounds nuw %"class.icu_77::RelativeDateTimeFormatter", ptr %13, i32 0, i32 2
  %15 = load ptr, ptr %14, align 8, !tbaa !103
  %16 = getelementptr inbounds nuw %"class.icu_77::RelativeDateTimeFormatter", ptr %5, i32 0, i32 2
  call void @_ZN6icu_7712SharedObject7copyPtrINS_18SharedNumberFormatEEEvPKT_RS5_(ptr noundef %15, ptr noundef nonnull align 8 dereferenceable(8) %16)
  %17 = load ptr, ptr %4, align 8, !tbaa !94
  %18 = getelementptr inbounds nuw %"class.icu_77::RelativeDateTimeFormatter", ptr %17, i32 0, i32 3
  %19 = load ptr, ptr %18, align 8, !tbaa !104
  %20 = getelementptr inbounds nuw %"class.icu_77::RelativeDateTimeFormatter", ptr %5, i32 0, i32 3
  call void @_ZN6icu_7712SharedObject7copyPtrINS_17SharedPluralRulesEEEvPKT_RS5_(ptr noundef %19, ptr noundef nonnull align 8 dereferenceable(8) %20)
  %21 = load ptr, ptr %4, align 8, !tbaa !94
  %22 = getelementptr inbounds nuw %"class.icu_77::RelativeDateTimeFormatter", ptr %21, i32 0, i32 6
  %23 = load ptr, ptr %22, align 8, !tbaa !107
  %24 = getelementptr inbounds nuw %"class.icu_77::RelativeDateTimeFormatter", ptr %5, i32 0, i32 6
  call void @_ZN6icu_7712SharedObject7copyPtrINS_19SharedBreakIteratorEEEvPKT_RS5_(ptr noundef %23, ptr noundef nonnull align 8 dereferenceable(8) %24)
  %25 = load ptr, ptr %4, align 8, !tbaa !94
  %26 = getelementptr inbounds nuw %"class.icu_77::RelativeDateTimeFormatter", ptr %25, i32 0, i32 4
  %27 = load i32, ptr %26, align 8, !tbaa !105
  %28 = getelementptr inbounds nuw %"class.icu_77::RelativeDateTimeFormatter", ptr %5, i32 0, i32 4
  store i32 %27, ptr %28, align 8, !tbaa !105
  %29 = load ptr, ptr %4, align 8, !tbaa !94
  %30 = getelementptr inbounds nuw %"class.icu_77::RelativeDateTimeFormatter", ptr %29, i32 0, i32 5
  %31 = load i32, ptr %30, align 4, !tbaa !106
  %32 = getelementptr inbounds nuw %"class.icu_77::RelativeDateTimeFormatter", ptr %5, i32 0, i32 5
  store i32 %31, ptr %32, align 4, !tbaa !106
  %33 = load ptr, ptr %4, align 8, !tbaa !94
  %34 = getelementptr inbounds nuw %"class.icu_77::RelativeDateTimeFormatter", ptr %33, i32 0, i32 7
  %35 = getelementptr inbounds nuw %"class.icu_77::RelativeDateTimeFormatter", ptr %5, i32 0, i32 7
  %36 = call noundef nonnull align 8 dereferenceable(217) ptr @_ZN6icu_776LocaleaSERKS0_(ptr noundef nonnull align 8 dereferenceable(217) %35, ptr noundef nonnull align 8 dereferenceable(217) %34)
  br label %37

37:                                               ; preds = %8, %2
  ret ptr %5
}