; Function Attrs: mustprogress uwtable
define noundef nonnull align 8 dereferenceable(272) ptr @_ZN6icu_7725RelativeDateTimeFormatteraSERKS0_(ptr noundef nonnull returned align 8 dereferenceable(272) %0, ptr noundef nonnull align 8 dereferenceable(272) %1) local_unnamed_addr #1 align 2 {
  %.not = icmp eq ptr %0, %1
  br i1 %.not, label %45, label %3

3:                                                ; preds = %2
  %4 = getelementptr inbounds nuw i8, ptr %1, i64 8
  %5 = load ptr, ptr %4, align 8, !tbaa !87
  %6 = getelementptr inbounds nuw i8, ptr %0, i64 8
  %7 = load ptr, ptr %6, align 8, !tbaa !43
  %.not.i = icmp eq ptr %5, %7
  br i1 %.not.i, label %_ZN6icu_7712SharedObject7copyPtrINS_25RelativeDateTimeCacheDataEEEvPKT_RS5_.exit, label %8

8:                                                ; preds = %3
  %.not9.i = icmp eq ptr %7, null
  br i1 %.not9.i, label %10, label %9

9:                                                ; preds = %8
  tail call void @_ZNK6icu_7712SharedObject9removeRefEv(ptr noundef nonnull align 8 dereferenceable(24) %7)
  br label %10

10:                                               ; preds = %9, %8
  store ptr %5, ptr %6, align 8, !tbaa !43
  %.not10.i = icmp eq ptr %5, null
  br i1 %.not10.i, label %_ZN6icu_7712SharedObject7copyPtrINS_25RelativeDateTimeCacheDataEEEvPKT_RS5_.exit, label %11

11:                                               ; preds = %10
  tail call void @_ZNK6icu_7712SharedObject6addRefEv(ptr noundef nonnull align 8 dereferenceable(24) %5)
  br label %_ZN6icu_7712SharedObject7copyPtrINS_25RelativeDateTimeCacheDataEEEvPKT_RS5_.exit

_ZN6icu_7712SharedObject7copyPtrINS_25RelativeDateTimeCacheDataEEEvPKT_RS5_.exit: ; preds = %3, %10, %11
  %12 = getelementptr inbounds nuw i8, ptr %1, i64 16
  %13 = load ptr, ptr %12, align 8, !tbaa !88
  %14 = getelementptr inbounds nuw i8, ptr %0, i64 16
  %15 = load ptr, ptr %14, align 8, !tbaa !81
  %.not.i10 = icmp eq ptr %13, %15
  br i1 %.not.i10, label %_ZN6icu_7712SharedObject7copyPtrINS_18SharedNumberFormatEEEvPKT_RS5_.exit, label %16

16:                                               ; preds = %_ZN6icu_7712SharedObject7copyPtrINS_25RelativeDateTimeCacheDataEEEvPKT_RS5_.exit
  %.not9.i11 = icmp eq ptr %15, null
  br i1 %.not9.i11, label %18, label %17

17:                                               ; preds = %16
  tail call void @_ZNK6icu_7712SharedObject9removeRefEv(ptr noundef nonnull align 8 dereferenceable(24) %15)
  br label %18

18:                                               ; preds = %17, %16
  store ptr %13, ptr %14, align 8, !tbaa !81
  %.not10.i12 = icmp eq ptr %13, null
  br i1 %.not10.i12, label %_ZN6icu_7712SharedObject7copyPtrINS_18SharedNumberFormatEEEvPKT_RS5_.exit, label %19

19:                                               ; preds = %18
  tail call void @_ZNK6icu_7712SharedObject6addRefEv(ptr noundef nonnull align 8 dereferenceable(24) %13)
  br label %_ZN6icu_7712SharedObject7copyPtrINS_18SharedNumberFormatEEEvPKT_RS5_.exit

_ZN6icu_7712SharedObject7copyPtrINS_18SharedNumberFormatEEEvPKT_RS5_.exit: ; preds = %_ZN6icu_7712SharedObject7copyPtrINS_25RelativeDateTimeCacheDataEEEvPKT_RS5_.exit, %18, %19
  %20 = getelementptr inbounds nuw i8, ptr %1, i64 24
  %21 = load ptr, ptr %20, align 8, !tbaa !89
  %22 = getelementptr inbounds nuw i8, ptr %0, i64 24
  %23 = load ptr, ptr %22, align 8, !tbaa !80
  %.not.i13 = icmp eq ptr %21, %23
  br i1 %.not.i13, label %_ZN6icu_7712SharedObject7copyPtrINS_17SharedPluralRulesEEEvPKT_RS5_.exit, label %24

24:                                               ; preds = %_ZN6icu_7712SharedObject7copyPtrINS_18SharedNumberFormatEEEvPKT_RS5_.exit
  %.not9.i14 = icmp eq ptr %23, null
  br i1 %.not9.i14, label %26, label %25

25:                                               ; preds = %24
  tail call void @_ZNK6icu_7712SharedObject9removeRefEv(ptr noundef nonnull align 8 dereferenceable(24) %23)
  br label %26

26:                                               ; preds = %25, %24
  store ptr %21, ptr %22, align 8, !tbaa !80
  %.not10.i15 = icmp eq ptr %21, null
  br i1 %.not10.i15, label %_ZN6icu_7712SharedObject7copyPtrINS_17SharedPluralRulesEEEvPKT_RS5_.exit, label %27

27:                                               ; preds = %26
  tail call void @_ZNK6icu_7712SharedObject6addRefEv(ptr noundef nonnull align 8 dereferenceable(24) %21)
  br label %_ZN6icu_7712SharedObject7copyPtrINS_17SharedPluralRulesEEEvPKT_RS5_.exit

_ZN6icu_7712SharedObject7copyPtrINS_17SharedPluralRulesEEEvPKT_RS5_.exit: ; preds = %_ZN6icu_7712SharedObject7copyPtrINS_18SharedNumberFormatEEEvPKT_RS5_.exit, %26, %27
  %28 = getelementptr inbounds nuw i8, ptr %1, i64 40
  %29 = load ptr, ptr %28, align 8, !tbaa !79
  %30 = getelementptr inbounds nuw i8, ptr %0, i64 40
  %31 = load ptr, ptr %30, align 8, !tbaa !85
  %.not.i16 = icmp eq ptr %29, %31
  br i1 %.not.i16, label %_ZN6icu_7712SharedObject7copyPtrINS_19SharedBreakIteratorEEEvPKT_RS5_.exit, label %32

32:                                               ; preds = %_ZN6icu_7712SharedObject7copyPtrINS_17SharedPluralRulesEEEvPKT_RS5_.exit
  %.not9.i17 = icmp eq ptr %31, null
  br i1 %.not9.i17, label %34, label %33

33:                                               ; preds = %32
  tail call void @_ZNK6icu_7712SharedObject9removeRefEv(ptr noundef nonnull align 8 dereferenceable(24) %31)
  br label %34

34:                                               ; preds = %33, %32
  store ptr %29, ptr %30, align 8, !tbaa !85
  %.not10.i18 = icmp eq ptr %29, null
  br i1 %.not10.i18, label %_ZN6icu_7712SharedObject7copyPtrINS_19SharedBreakIteratorEEEvPKT_RS5_.exit, label %35

35:                                               ; preds = %34
  tail call void @_ZNK6icu_7712SharedObject6addRefEv(ptr noundef nonnull align 8 dereferenceable(24) %29)
  br label %_ZN6icu_7712SharedObject7copyPtrINS_19SharedBreakIteratorEEEvPKT_RS5_.exit

_ZN6icu_7712SharedObject7copyPtrINS_19SharedBreakIteratorEEEvPKT_RS5_.exit: ; preds = %_ZN6icu_7712SharedObject7copyPtrINS_17SharedPluralRulesEEEvPKT_RS5_.exit, %34, %35
  %36 = getelementptr inbounds nuw i8, ptr %1, i64 32
  %37 = load i32, ptr %36, align 8, !tbaa !86
  %38 = getelementptr inbounds nuw i8, ptr %0, i64 32
  store i32 %37, ptr %38, align 8, !tbaa !86
  %39 = getelementptr inbounds nuw i8, ptr %1, i64 36
  %40 = load i32, ptr %39, align 4, !tbaa !72
  %41 = getelementptr inbounds nuw i8, ptr %0, i64 36
  store i32 %40, ptr %41, align 4, !tbaa !72
  %42 = getelementptr inbounds nuw i8, ptr %1, i64 48
  %43 = getelementptr inbounds nuw i8, ptr %0, i64 48
  %44 = tail call noundef nonnull align 8 dereferenceable(217) ptr @_ZN6icu_776LocaleaSERKS0_(ptr noundef nonnull align 8 dereferenceable(217) %43, ptr noundef nonnull align 8 dereferenceable(217) %42)
  br label %45

45:                                               ; preds = %_ZN6icu_7712SharedObject7copyPtrINS_19SharedBreakIteratorEEEvPKT_RS5_.exit, %2
  ret ptr %0
}